; Function Attrs: nofree norecurse nosync nounwind memory(argmem: readwrite) uwtable
define internal void @put_h264_chroma_mc2_16_c(ptr noundef writeonly captures(none) %0, ptr noundef readonly captures(none) %1, i64 noundef %2, i32 noundef %3, i32 noundef %4, i32 noundef %5) #1 {
  %7 = sub nsw i32 8, %4
  %8 = sub nsw i32 8, %5
  %9 = mul nsw i32 %8, %7
  %10 = mul nsw i32 %8, %4
  %11 = mul nsw i32 %7, %5
  %12 = mul nsw i32 %5, %4
  %13 = ashr i64 %2, 1
  %.not = icmp eq i32 %12, 0
  br i1 %.not, label %59, label %.preheader89

.preheader89:                                     ; preds = %6
  %14 = icmp sgt i32 %3, 0
  br i1 %14, label %.lr.ph, label %.loopexit

.lr.ph:                                           ; preds = %.preheader89, %.lr.ph
  %.093 = phi ptr [ %57, %.lr.ph ], [ %0, %.preheader89 ]
  %.07892 = phi i32 [ %58, %.lr.ph ], [ 0, %.preheader89 ]
  %.08191 = phi ptr [ %22, %.lr.ph ], [ %1, %.preheader89 ]
  %15 = load i16, ptr %.08191, align 2, !tbaa !8
  %16 = zext i16 %15 to i32
  %17 = mul nsw i32 %9, %16
  %18 = getelementptr inbounds nuw i8, ptr %.08191, i64 2
  %19 = load i16, ptr %18, align 2, !tbaa !8
  %20 = zext i16 %19 to i32
  %21 = mul nsw i32 %10, %20
  %22 = getelementptr inbounds i16, ptr %.08191, i64 %13
  %23 = load i16, ptr %22, align 2, !tbaa !8
  %24 = zext i16 %23 to i32
  %25 = mul nsw i32 %11, %24
  %26 = getelementptr i8, ptr %22, i64 2
  %27 = load i16, ptr %26, align 2, !tbaa !8
  %28 = zext i16 %27 to i32
  %29 = mul nsw i32 %12, %28
  %30 = add i32 %17, 32
  %31 = add i32 %30, %21
  %32 = add i32 %31, %25
  %33 = add i32 %32, %29
  %34 = lshr i32 %33, 6
  %35 = trunc i32 %34 to i16
  store i16 %35, ptr %.093, align 2, !tbaa !8
  %36 = load i16, ptr %18, align 2, !tbaa !8
  %37 = zext i16 %36 to i32
  %38 = mul nsw i32 %9, %37
  %39 = getelementptr inbounds nuw i8, ptr %.08191, i64 4
  %40 = load i16, ptr %39, align 2, !tbaa !8
  %41 = zext i16 %40 to i32
  %42 = mul nsw i32 %10, %41
  %43 = load i16, ptr %26, align 2, !tbaa !8
  %44 = zext i16 %43 to i32
  %45 = mul nsw i32 %11, %44
  %46 = getelementptr i8, ptr %22, i64 4
  %47 = load i16, ptr %46, align 2, !tbaa !8
  %48 = zext i16 %47 to i32
  %49 = mul nsw i32 %12, %48
  %50 = add i32 %38, 32
  %51 = add i32 %50, %42
  %52 = add i32 %51, %45
  %53 = add i32 %52, %49
  %54 = lshr i32 %53, 6
  %55 = trunc i32 %54 to i16
  %56 = getelementptr inbounds nuw i8, ptr %.093, i64 2
  store i16 %55, ptr %56, align 2, !tbaa !8
  %57 = getelementptr inbounds i16, ptr %.093, i64 %13
  %58 = add nuw nsw i32 %.07892, 1
  %exitcond.not = icmp eq i32 %58, %3
  br i1 %exitcond.not, label %.loopexit, label %.lr.ph, !llvm.loop !17

59:                                               ; preds = %6
  %60 = add nsw i32 %10, %11
  %.not86 = icmp eq i32 %60, 0
  br i1 %.not86, label %.preheader, label %62

.preheader:                                       ; preds = %59
  %61 = icmp sgt i32 %3, 0
  br i1 %61, label %.lr.ph101, label %.loopexit

62:                                               ; preds = %59
  %.not87 = icmp eq i32 %11, 0
  %63 = select i1 %.not87, i64 1, i64 %13
  %64 = icmp sgt i32 %3, 0
  br i1 %64, label %.lr.ph97, label %.loopexit

.lr.ph97:                                         ; preds = %62, %.lr.ph97
  %.196 = phi ptr [ %89, %.lr.ph97 ], [ %0, %62 ]
  %.17995 = phi i32 [ %91, %.lr.ph97 ], [ 0, %62 ]
  %.18294 = phi ptr [ %90, %.lr.ph97 ], [ %1, %62 ]
  %65 = load i16, ptr %.18294, align 2, !tbaa !8
  %66 = zext i16 %65 to i32
  %67 = mul nsw i32 %9, %66
  %68 = getelementptr inbounds i16, ptr %.18294, i64 %63
  %69 = load i16, ptr %68, align 2, !tbaa !8
  %70 = zext i16 %69 to i32
  %71 = mul nsw i32 %60, %70
  %72 = add i32 %67, 32
  %73 = add i32 %72, %71
  %74 = lshr i32 %73, 6
  %75 = trunc i32 %74 to i16
  store i16 %75, ptr %.196, align 2, !tbaa !8
  %76 = getelementptr inbounds nuw i8, ptr %.18294, i64 2
  %77 = load i16, ptr %76, align 2, !tbaa !8
  %78 = zext i16 %77 to i32
  %79 = mul nsw i32 %9, %78
  %80 = getelementptr i8, ptr %68, i64 2
  %81 = load i16, ptr %80, align 2, !tbaa !8
  %82 = zext i16 %81 to i32
  %83 = mul nsw i32 %60, %82
  %84 = add i32 %79, 32
  %85 = add i32 %84, %83
  %86 = lshr i32 %85, 6
  %87 = trunc i32 %86 to i16
  %88 = getelementptr inbounds nuw i8, ptr %.196, i64 2
  store i16 %87, ptr %88, align 2, !tbaa !8
  %89 = getelementptr inbounds i16, ptr %.196, i64 %13
  %90 = getelementptr inbounds i16, ptr %.18294, i64 %13
  %91 = add nuw nsw i32 %.17995, 1
  %exitcond104.not = icmp eq i32 %91, %3
  br i1 %exitcond104.not, label %.loopexit, label %.lr.ph97, !llvm.loop !18

.lr.ph101:                                        ; preds = %.preheader, %.lr.ph101
  %.2100 = phi ptr [ %106, %.lr.ph101 ], [ %0, %.preheader ]
  %.28099 = phi i32 [ %108, %.lr.ph101 ], [ 0, %.preheader ]
  %.28398 = phi ptr [ %107, %.lr.ph101 ], [ %1, %.preheader ]
  %92 = load i16, ptr %.28398, align 2, !tbaa !8
  %93 = zext i16 %92 to i32
  %94 = mul nsw i32 %9, %93
  %95 = add nsw i32 %94, 32
  %96 = lshr i32 %95, 6
  %97 = trunc i32 %96 to i16
  store i16 %97, ptr %.2100, align 2, !tbaa !8
  %98 = getelementptr inbounds nuw i8, ptr %.28398, i64 2
  %99 = load i16, ptr %98, align 2, !tbaa !8
  %100 = zext i16 %99 to i32
  %101 = mul nsw i32 %9, %100
  %102 = add nsw i32 %101, 32
  %103 = lshr i32 %102, 6
  %104 = trunc i32 %103 to i16
  %105 = getelementptr inbounds nuw i8, ptr %.2100, i64 2
  store i16 %104, ptr %105, align 2, !tbaa !8
  %106 = getelementptr inbounds i16, ptr %.2100, i64 %13
  %107 = getelementptr inbounds i16, ptr %.28398, i64 %13
  %108 = add nuw nsw i32 %.28099, 1
  %exitcond105.not = icmp eq i32 %108, %3
  br i1 %exitcond105.not, label %.loopexit, label %.lr.ph101, !llvm.loop !19

.loopexit:                                        ; preds = %.lr.ph, %.lr.ph97, %.lr.ph101, %.preheader89, %62, %.preheader
  ret void
}